Certificate:
    Data:
        Version: 3 (0x2)
        Serial Number:
             (Negative)10:ba:13:2c:d1:50:b7:e5:1f:cf
        Signature Algorithm: sha1WithRSAEncryption
        Issuer: CN = Alice, O = Tecxoft, OU = QA, emailAddress = alice@tecxoft.com, C = US
        Validity
            Not Before: Jul 29 10:21:32 2009 GMT
            Not After : Jul 29 10:21:32 2014 GMT
        Subject: CN = Alice, O = Tecxoft, OU = QA, emailAddress = alice@tecxoft.com, C = US
        Subject Public Key Info:
            Public Key Algorithm: rsaEncryption
                RSA Public-Key: (1024 bit)
                Modulus:
                    00:d0:9f:21:2b:b3:67:b3:cf:83:02:04:48:f0:53:
                    45:aa:b5:5a:67:b8:37:8c:ef:19:a7:17:13:c4:7e:
                    c8:ad:16:5e:42:d7:cb:81:63:46:08:68:12:89:bd:
                    dc:9c:3a:68:59:8d:dd:d0:c6:d3:cc:77:ee:f8:59:
                    cc:4d:c9:79:22:c5:8f:6a:ef:c8:b6:da:2f:e7:ae:
                    a7:ce:19:d6:63:a1:ca:f1:97:f7:f6:92:0b:58:22:
                    b7:f1:43:ad:7b:37:6f:44:04:33:16:95:17:82:05:
                    f2:da:47:94:57:10:9e:17:88:7e:ba:71:f5:67:42:
                    cd:9b:ed:df:b4:22:15:60:9d
                Exponent: 65537 (0x10001)
        X509v3 extensions:
            1.2.840.113583.1.1.10: 
                ..
            X509v3 Key Usage: 
                Digital Signature, Data Encipherment
    Signature Algorithm: sha1WithRSAEncryption
         5f:ed:09:38:f8:73:c1:0a:90:8d:56:13:49:3b:55:f9:01:3c:
         6e:5b:a7:85:00:c5:00:34:75:92:a0:3d:f6:be:56:b4:0d:89:
         3d:f7:c7:25:38:25:d2:09:64:2c:c7:47:aa:d1:8e:d2:ae:4c:
         9d:ce:05:f4:0a:2d:22:21:51:f8:df:9e:3b:d9:d7:e8:9f:0e:
         45:62:6e:e2:e6:cc:46:3a:b2:64:27:4f:ad:63:1e:37:44:f5:
         d9:c5:da:62:d6:5e:ae:3e:70:65:a0:ef:68:c7:de:52:0a:c9:
         b0:0e:d7:76:0f:d0:3c:e4:51:4d:d6:ef:54:5b:e1:b0:3d:10:
         85:6c
-----BEGIN CERTIFICATE-----
MIICWzCCAcSgAwIBAgIK70Xs0y6vSBrgMTANBgkqhkiG9w0BAQUFADBeMQ4wDAYD
VQQDEwVBbGljZTEQMA4GA1UEChMHVGVjeG9mdDELMAkGA1UECxMCUUExIDAeBgkq
hkiG9w0BCQEWEWFsaWNlQHRlY3hvZnQuY29tMQswCQYDVQQGEwJVUzAeFw0wOTA3
MjkxMDIxMzJaFw0xNDA3MjkxMDIxMzJaMF4xDjAMBgNVBAMTBUFsaWNlMRAwDgYD
VQQKEwdUZWN4b2Z0MQswCQYDVQQLEwJRQTEgMB4GCSqGSIb3DQEJARYRYWxpY2VA
dGVjeG9mdC5jb20xCzAJBgNVBAYTAlVTMIGfMA0GCSqGSIb3DQEBAQUAA4GNADCB
iQKBgQDQnyErs2ezz4MCBEjwU0WqtVpnuDeM7xmnFxPEfsitFl5C18uBY0YIaBKJ
vdycOmhZjd3QxtPMd+74WcxNyXkixY9q78i22i/nrqfOGdZjocrxl/f2kgtYIrfx
Q617N29EBDMWlReCBfLaR5RXEJ4XiH66cfVnQs2b7d+0IhVgnQIDAQABoyAwHjAP
BgkqhkiG9y8BAQoEAgUAMAsGA1UdDwQEAwIEkDANBgkqhkiG9w0BAQUFAAOBgQBf
7Qk4+HPBCpCNVhNJO1X5ATxuW6eFAMUANHWSoD32vla0DYk998clOCXSCWQsx0eq
0Y7SrkydzgX0Ci0iIVH435472dfonw5FYm7i5sxGOrJkJ0+tYx43RPXZxdpi1l6u
PnBloO9ox95SCsmwDtd2D9A85FFN1u9UW+GwPRCFbA==
-----END CERTIFICATE-----
