Certificate:
    Data:
        Version: 3 (0x2)
        Serial Number: 1042070824 (0x3e1cbd28)
    Signature Algorithm: sha1WithRSAEncryption
        Issuer: C=US, O=Adobe Systems Incorporated, OU=Adobe Trust Services, CN=Adobe Root CA
        Validity
            Not Before: Jan  8 23:37:23 2003 GMT
            Not After : Jan  9 00:07:23 2023 GMT
        Subject: C=US, O=Adobe Systems Incorporated, OU=Adobe Trust Services, CN=Adobe Root CA
        Subject Public Key Info:
            Public Key Algorithm: rsaEncryption
                Public-Key: (2048 bit)
                Modulus:
                    00:cc:4f:54:84:f7:a7:a2:e7:33:53:7f:3f:9c:12:
                    88:6b:2c:99:47:67:7e:0f:1e:b9:ad:14:88:f9:c3:
                    10:d8:1d:f0:f0:d5:9f:69:0a:2f:59:35:b0:cc:6c:
                    a9:4c:9c:15:a0:9f:ce:20:bf:a0:cf:54:e2:e0:20:
                    66:45:3f:39:86:38:7e:9c:c4:8e:07:22:c6:24:f6:
                    01:12:b0:35:df:55:ea:69:90:b0:db:85:37:1e:e2:
                    4e:07:b2:42:a1:6a:13:69:a0:66:ea:80:91:11:59:
                    2a:9b:08:79:5a:20:44:2d:c9:bd:73:38:8b:3c:2f:
                    e0:43:1b:5d:b3:0b:f0:af:35:1a:29:fe:ef:a6:92:
                    dd:81:4c:9d:3d:59:8e:ad:31:3c:40:7e:9b:91:36:
                    06:fc:e2:5c:8d:d1:8d:26:d5:5c:45:cf:af:65:3f:
                    b1:aa:d2:62:96:f4:a8:38:ea:ba:60:42:f4:f4:1c:
                    4a:35:15:ce:f8:4e:22:56:0f:95:18:c5:f8:96:9f:
                    9f:fb:b0:b7:78:25:e9:80:6b:bd:d6:0a:f0:c6:74:
                    94:9d:f3:0f:50:db:9a:77:ce:4b:70:83:23:8d:a0:
                    ca:78:20:44:5c:3c:54:64:f1:ea:a2:30:19:9f:ea:
                    4c:06:4d:06:78:4b:5e:92:df:22:d2:c9:67:b3:7a:
                    d2:01
                Exponent: 65537 (0x10001)
        X509v3 extensions:
            Netscape Cert Type: 
                SSL CA, S/MIME CA, Object Signing CA
            X509v3 CRL Distribution Points: 

                Full Name:
                  DirName: C = US, O = Adobe Systems Incorporated, OU = Adobe Trust Services, CN = Adobe Root CA, CN = CRL1

            X509v3 Private Key Usage Period: 
                Not Before: Jan  8 23:37:23 2003 GMT, Not After: Jan  9 00:07:23 2023 GMT
            X509v3 Key Usage: 
                Certificate Sign, CRL Sign
            X509v3 Authority Key Identifier: 
                keyid:82:B7:38:4A:93:AA:9B:10:EF:80:BB:D9:54:E2:F1:0F:FB:80:9C:DE

            X509v3 Subject Key Identifier: 
                82:B7:38:4A:93:AA:9B:10:EF:80:BB:D9:54:E2:F1:0F:FB:80:9C:DE
            X509v3 Basic Constraints: 
                CA:TRUE
            1.2.840.113533.7.65.0: 
                0...V6.0:4.0....
    Signature Algorithm: sha1WithRSAEncryption
         32:da:9f:43:75:c1:fa:6f:c9:6f:db:ab:1d:36:37:3e:bc:61:
         19:36:b7:02:3c:1d:23:59:98:6c:9e:ee:4d:85:e7:54:c8:20:
         1f:a7:d4:bb:e2:bf:00:77:7d:24:6b:70:2f:5c:c1:3a:76:49:
         b5:d3:e0:23:84:2a:71:6a:22:f3:c1:27:29:98:15:f6:35:90:
         e4:04:4c:c3:8d:bc:9f:61:1c:e7:fd:24:8c:d1:44:43:8c:16:
         ba:9b:4d:a5:d4:35:2f:bc:11:ce:bd:f7:51:37:8d:9f:90:e4:
         14:f1:18:3f:be:e9:59:12:35:f9:33:92:f3:9e:e0:d5:6b:9a:
         71:9b:99:4b:c8:71:c3:e1:b1:61:09:c4:e5:fa:91:f0:42:3a:
         37:7d:34:f9:72:e8:cd:aa:62:1c:21:e9:d5:f4:82:10:e3:7b:
         05:b6:2d:68:56:0b:7e:7e:92:2c:6f:4d:72:82:0c:ed:56:74:
         b2:9d:b9:ab:2d:2b:1d:10:5f:db:27:75:70:8f:fd:1d:d7:e2:
         02:a0:79:e5:1c:e5:ff:af:64:40:51:2d:9e:9b:47:db:42:a5:
         7c:1f:c2:a6:48:b0:d7:be:92:69:4d:a4:f6:29:57:c5:78:11:
         18:dc:87:51:ca:13:b2:62:9d:4f:2b:32:bd:31:a5:c1:fa:52:
         ab:05:88:c8
-----BEGIN CERTIFICATE-----
MIIEoTCCA4mgAwIBAgIEPhy9KDANBgkqhkiG9w0BAQUFADBpMQswCQYDVQQGEwJV
UzEjMCEGA1UEChMaQWRvYmUgU3lzdGVtcyBJbmNvcnBvcmF0ZWQxHTAbBgNVBAsT
FEFkb2JlIFRydXN0IFNlcnZpY2VzMRYwFAYDVQQDEw1BZG9iZSBSb290IENBMB4X
DTAzMDEwODIzMzcyM1oXDTIzMDEwOTAwMDcyM1owaTELMAkGA1UEBhMCVVMxIzAh
BgNVBAoTGkFkb2JlIFN5c3RlbXMgSW5jb3Jwb3JhdGVkMR0wGwYDVQQLExRBZG9i
ZSBUcnVzdCBTZXJ2aWNlczEWMBQGA1UEAxMNQWRvYmUgUm9vdCBDQTCCASIwDQYJ
KoZIhvcNAQEBBQADggEPADCCAQoCggEBAMxPVIT3p6LnM1N/P5wSiGssmUdnfg8e
ua0UiPnDENgd8PDVn2kKL1k1sMxsqUycFaCfziC/oM9U4uAgZkU/OYY4fpzEjgci
xiT2ARKwNd9V6mmQsNuFNx7iTgeyQqFqE2mgZuqAkRFZKpsIeVogRC3JvXM4izwv
4EMbXbML8K81Gin+76aS3YFMnT1Zjq0xPEB+m5E2BvziXI3RjSbVXEXPr2U/sarS
Ypb0qDjqumBC9PQcSjUVzvhOIlYPlRjF+Jafn/uwt3gl6YBrvdYK8MZ0lJ3zD1Db
mnfOS3CDI42gynggRFw8VGTx6qIwGZ/qTAZNBnhLXpLfItLJZ7N60gECAwEAAaOC
AU8wggFLMBEGCWCGSAGG+EIBAQQEAwIABzCBjgYDVR0fBIGGMIGDMIGAoH6gfKR6
MHgxCzAJBgNVBAYTAlVTMSMwIQYDVQQKExpBZG9iZSBTeXN0ZW1zIEluY29ycG9y
YXRlZDEdMBsGA1UECxMUQWRvYmUgVHJ1c3QgU2VydmljZXMxFjAUBgNVBAMTDUFk
b2JlIFJvb3QgQ0ExDTALBgNVBAMTBENSTDEwKwYDVR0QBCQwIoAPMjAwMzAxMDgy
MzM3MjNagQ8yMDIzMDEwOTAwMDcyM1owCwYDVR0PBAQDAgEGMB8GA1UdIwQYMBaA
FIK3OEqTqpsQ74C72VTi8Q/7gJzeMB0GA1UdDgQWBBSCtzhKk6qbEO+Au9lU4vEP
+4Cc3jAMBgNVHRMEBTADAQH/MB0GCSqGSIb2fQdBAAQQMA4bCFY2LjA6NC4wAwIE
kDANBgkqhkiG9w0BAQUFAAOCAQEAMtqfQ3XB+m/Jb9urHTY3PrxhGTa3AjwdI1mY
bJ7uTYXnVMggH6fUu+K/AHd9JGtwL1zBOnZJtdPgI4QqcWoi88EnKZgV9jWQ5ARM
w428n2Ec5/0kjNFEQ4wWuptNpdQ1L7wRzr33UTeNn5DkFPEYP77pWRI1+TOS857g
1WuacZuZS8hxw+GxYQnE5fqR8EI6N300+XLozapiHCHp1fSCEON7BbYtaFYLfn6S
LG9NcoIM7VZ0sp25qy0rHRBf2yd1cI/9HdfiAqB55Rzl/69kQFEtnptH20KlfB/C
pkiw176SaU2k9ilXxXgRGNyHUcoTsmKdTysyvTGlwfpSqwWIyA==
-----END CERTIFICATE-----
